#include <math.h>
#include <stdio.h>
#include <stdlib.h>
#include <string.h>

int main()
{
	char str[13],*p,*h;
	int l,i,m;
	while(gets(str))
	{
		p=str;
		h=str;
		m=0;
		l=strlen(p);
		for(i=0;i<(l-4);i++)
		{
			if(*h<*(p+i)) 
			{
				h=p+i;
				m=i;
			}
		}
		for(i=0;i<=m;i++)
			printf("%c",*(p+i));
		printf("%c%c%c",*(p+l-3),*(p+l-2),*(p+l-1));
		for(i=m+1;*(p+i)!=' ';i++)
			printf("%c",*(p+i));
		printf("\n");
	}
return 0;
}