; ModuleID = '20/660.c'
source_filename = "20/660.c"
target datalayout = "e-m:e-p270:32:32-p271:32:32-p272:64:64-i64:64-f80:128-n8:16:32:64-S128"
target triple = "x86_64-pc-linux-gnu"

@.str = private unnamed_addr constant [3 x i8] c"%c\00", align 1
@.str.1 = private unnamed_addr constant [7 x i8] c"%c%c%c\00", align 1
@.str.2 = private unnamed_addr constant [2 x i8] c"\0A\00", align 1

; Function Attrs: noinline nounwind uwtable
define dso_local i32 @main() #0 {
  %1 = alloca i32, align 4
  %2 = alloca [13 x i8], align 1
  %3 = alloca i8*, align 8
  %4 = alloca i8*, align 8
  %5 = alloca i32, align 4
  %6 = alloca i32, align 4
  %7 = alloca i32, align 4
  store i32 0, i32* %1, align 4
  br label %8

8:                                                ; preds = %104, %0
  %9 = getelementptr inbounds [13 x i8], [13 x i8]* %2, i64 0, i64 0
  %10 = call i32 (i8*, ...) bitcast (i32 (...)* @gets to i32 (i8*, ...)*)(i8* %9)
  %11 = icmp ne i32 %10, 0
  br i1 %11, label %12, label %106

12:                                               ; preds = %8
  %13 = getelementptr inbounds [13 x i8], [13 x i8]* %2, i64 0, i64 0
  store i8* %13, i8** %3, align 8
  %14 = getelementptr inbounds [13 x i8], [13 x i8]* %2, i64 0, i64 0
  store i8* %14, i8** %4, align 8
  store i32 0, i32* %7, align 4
  %15 = load i8*, i8** %3, align 8
  %16 = call i64 @strlen(i8* %15) #3
  %17 = trunc i64 %16 to i32
  store i32 %17, i32* %5, align 4
  store i32 0, i32* %6, align 4
  br label %18

18:                                               ; preds = %41, %12
  %19 = load i32, i32* %6, align 4
  %20 = load i32, i32* %5, align 4
  %21 = sub nsw i32 %20, 4
  %22 = icmp slt i32 %19, %21
  br i1 %22, label %23, label %44

23:                                               ; preds = %18
  %24 = load i8*, i8** %4, align 8
  %25 = load i8, i8* %24, align 1
  %26 = sext i8 %25 to i32
  %27 = load i8*, i8** %3, align 8
  %28 = load i32, i32* %6, align 4
  %29 = sext i32 %28 to i64
  %30 = getelementptr inbounds i8, i8* %27, i64 %29
  %31 = load i8, i8* %30, align 1
  %32 = sext i8 %31 to i32
  %33 = icmp slt i32 %26, %32
  br i1 %33, label %34, label %40

34:                                               ; preds = %23
  %35 = load i8*, i8** %3, align 8
  %36 = load i32, i32* %6, align 4
  %37 = sext i32 %36 to i64
  %38 = getelementptr inbounds i8, i8* %35, i64 %37
  store i8* %38, i8** %4, align 8
  %39 = load i32, i32* %6, align 4
  store i32 %39, i32* %7, align 4
  br label %40

40:                                               ; preds = %34, %23
  br label %41

41:                                               ; preds = %40
  %42 = load i32, i32* %6, align 4
  %43 = add nsw i32 %42, 1
  store i32 %43, i32* %6, align 4
  br label %18

44:                                               ; preds = %18
  store i32 0, i32* %6, align 4
  br label %45

45:                                               ; preds = %57, %44
  %46 = load i32, i32* %6, align 4
  %47 = load i32, i32* %7, align 4
  %48 = icmp sle i32 %46, %47
  br i1 %48, label %49, label %60

49:                                               ; preds = %45
  %50 = load i8*, i8** %3, align 8
  %51 = load i32, i32* %6, align 4
  %52 = sext i32 %51 to i64
  %53 = getelementptr inbounds i8, i8* %50, i64 %52
  %54 = load i8, i8* %53, align 1
  %55 = sext i8 %54 to i32
  %56 = call i32 (i8*, ...) @printf(i8* getelementptr inbounds ([3 x i8], [3 x i8]* @.str, i64 0, i64 0), i32 %55)
  br label %57

57:                                               ; preds = %49
  %58 = load i32, i32* %6, align 4
  %59 = add nsw i32 %58, 1
  store i32 %59, i32* %6, align 4
  br label %45

60:                                               ; preds = %45
  %61 = load i8*, i8** %3, align 8
  %62 = load i32, i32* %5, align 4
  %63 = sext i32 %62 to i64
  %64 = getelementptr inbounds i8, i8* %61, i64 %63
  %65 = getelementptr inbounds i8, i8* %64, i64 -3
  %66 = load i8, i8* %65, align 1
  %67 = sext i8 %66 to i32
  %68 = load i8*, i8** %3, align 8
  %69 = load i32, i32* %5, align 4
  %70 = sext i32 %69 to i64
  %71 = getelementptr inbounds i8, i8* %68, i64 %70
  %72 = getelementptr inbounds i8, i8* %71, i64 -2
  %73 = load i8, i8* %72, align 1
  %74 = sext i8 %73 to i32
  %75 = load i8*, i8** %3, align 8
  %76 = load i32, i32* %5, align 4
  %77 = sext i32 %76 to i64
  %78 = getelementptr inbounds i8, i8* %75, i64 %77
  %79 = getelementptr inbounds i8, i8* %78, i64 -1
  %80 = load i8, i8* %79, align 1
  %81 = sext i8 %80 to i32
  %82 = call i32 (i8*, ...) @printf(i8* getelementptr inbounds ([7 x i8], [7 x i8]* @.str.1, i64 0, i64 0), i32 %67, i32 %74, i32 %81)
  %83 = load i32, i32* %7, align 4
  %84 = add nsw i32 %83, 1
  store i32 %84, i32* %6, align 4
  br label %85

85:                                               ; preds = %101, %60
  %86 = load i8*, i8** %3, align 8
  %87 = load i32, i32* %6, align 4
  %88 = sext i32 %87 to i64
  %89 = getelementptr inbounds i8, i8* %86, i64 %88
  %90 = load i8, i8* %89, align 1
  %91 = sext i8 %90 to i32
  %92 = icmp ne i32 %91, 32
  br i1 %92, label %93, label %104

93:                                               ; preds = %85
  %94 = load i8*, i8** %3, align 8
  %95 = load i32, i32* %6, align 4
  %96 = sext i32 %95 to i64
  %97 = getelementptr inbounds i8, i8* %94, i64 %96
  %98 = load i8, i8* %97, align 1
  %99 = sext i8 %98 to i32
  %100 = call i32 (i8*, ...) @printf(i8* getelementptr inbounds ([3 x i8], [3 x i8]* @.str, i64 0, i64 0), i32 %99)
  br label %101

101:                                              ; preds = %93
  %102 = load i32, i32* %6, align 4
  %103 = add nsw i32 %102, 1
  store i32 %103, i32* %6, align 4
  br label %85

104:                                              ; preds = %85
  %105 = call i32 (i8*, ...) @printf(i8* getelementptr inbounds ([2 x i8], [2 x i8]* @.str.2, i64 0, i64 0))
  br label %8

106:                                              ; preds = %8
  ret i32 0
}

declare dso_local i32 @gets(...) #1

; Function Attrs: nounwind readonly
declare dso_local i64 @strlen(i8*) #2

declare dso_local i32 @printf(i8*, ...) #1


!llvm.module.flags = !{!0}
!llvm.ident = !{!1}

!0 = !{i32 1, !"wchar_size", i32 4}
!1 = !{!"clang version 10.0.0-4ubuntu1 "}
